; Function Attrs: mustprogress uwtable
define void @_ZN3gmx23SelectionOptionBehaviorC2EPNS_19SelectionCollectionEPNS_17ITopologyProviderE(ptr noundef nonnull align 8 dereferenceable(16) %0, ptr noundef %1, ptr noundef %2) unnamed_addr #2 align 2 personality ptr @__gxx_personality_v0 {
  store ptr getelementptr inbounds inrange(-16, 40) ({ [7 x ptr] }, ptr @_ZTVN3gmx23SelectionOptionBehaviorE, i64 0, i32 0, i64 2), ptr %0, align 8
  %4 = invoke noalias noundef nonnull dereferenceable(72) ptr @_Znwm(i64 noundef 72) #19
          to label %5 unwind label %12

5:                                                ; preds = %3
  store ptr %1, ptr %4, align 8
  %6 = getelementptr inbounds i8, ptr %4, i64 8
  store ptr %2, ptr %6, align 8
  %7 = getelementptr inbounds i8, ptr %4, i64 16
  invoke void @_ZN3gmx22SelectionOptionManagerC1EPNS_19SelectionCollectionE(ptr noundef nonnull align 8 dereferenceable(16) %7, ptr noundef %1)
          to label %8 unwind label %14

8:                                                ; preds = %5
  %9 = getelementptr inbounds i8, ptr %4, i64 32
  tail call void @_ZNSt7__cxx1112basic_stringIcSt11char_traitsIcESaIcEEC1Ev(ptr noundef nonnull align 8 dereferenceable(32) %9) #17
  %10 = getelementptr inbounds i8, ptr %4, i64 64
  store ptr null, ptr %10, align 8
  %11 = getelementptr inbounds i8, ptr %0, i64 8
  store ptr %4, ptr %11, align 8
  ret void

12:                                               ; preds = %3
  %13 = landingpad { ptr, i32 }
          cleanup
  br label %16

14:                                               ; preds = %5
  %15 = landingpad { ptr, i32 }
          cleanup
  tail call void @_ZdlPv(ptr noundef nonnull %4) #18
  br label %16

16:                                               ; preds = %14, %12
  %.pn = phi { ptr, i32 } [ %15, %14 ], [ %13, %12 ]
  tail call void @_ZN3gmx16IOptionsBehaviorD2Ev(ptr noundef nonnull align 8 dereferenceable(8) %0) #17
  resume { ptr, i32 } %.pn
}